; ModuleID = '58/34.c'
source_filename = "58/34.c"
target datalayout = "e-m:e-p270:32:32-p271:32:32-p272:64:64-i64:64-f80:128-n8:16:32:64-S128"
target triple = "x86_64-pc-linux-gnu"

@.str = private unnamed_addr constant [3 x i8] c"%d\00", align 1
@.str.1 = private unnamed_addr constant [3 x i8] c"1\0A\00", align 1
@.str.2 = private unnamed_addr constant [3 x i8] c"0\0A\00", align 1

; Function Attrs: noinline nounwind uwtable
define dso_local void @main() #0 {
  %1 = alloca i32, align 4
  %2 = alloca i32, align 4
  %3 = alloca i32, align 4
  %4 = alloca i32, align 4
  %5 = alloca i8*, align 8
  %6 = alloca [100 x [82 x i8]], align 16
  %7 = call i32 (i8*, ...) @__isoc99_scanf(i8* getelementptr inbounds ([3 x i8], [3 x i8]* @.str, i64 0, i64 0), i32* %1)
  %8 = call i32 @getchar()
  store i32 0, i32* %2, align 4
  br label %9

9:                                                ; preds = %122, %0
  %10 = load i32, i32* %2, align 4
  %11 = load i32, i32* %1, align 4
  %12 = icmp slt i32 %10, %11
  br i1 %12, label %13, label %125

13:                                               ; preds = %9
  %14 = load i32, i32* %2, align 4
  %15 = sext i32 %14 to i64
  %16 = getelementptr inbounds [100 x [82 x i8]], [100 x [82 x i8]]* %6, i64 0, i64 %15
  %17 = getelementptr inbounds [82 x i8], [82 x i8]* %16, i64 0, i64 0
  %18 = call i32 (i8*, ...) bitcast (i32 (...)* @gets to i32 (i8*, ...)*)(i8* %17)
  store i32 0, i32* %4, align 4
  %19 = load i32, i32* %2, align 4
  %20 = sext i32 %19 to i64
  %21 = getelementptr inbounds [100 x [82 x i8]], [100 x [82 x i8]]* %6, i64 0, i64 %20
  %22 = getelementptr inbounds [82 x i8], [82 x i8]* %21, i64 0, i64 0
  store i8* %22, i8** %5, align 8
  %23 = load i8*, i8** %5, align 8
  %24 = load i8, i8* %23, align 1
  %25 = sext i8 %24 to i32
  %26 = icmp sgt i32 %25, 64
  br i1 %26, label %27, label %32

27:                                               ; preds = %13
  %28 = load i8*, i8** %5, align 8
  %29 = load i8, i8* %28, align 1
  %30 = sext i8 %29 to i32
  %31 = icmp slt i32 %30, 91
  br i1 %31, label %47, label %32

32:                                               ; preds = %27, %13
  %33 = load i8*, i8** %5, align 8
  %34 = load i8, i8* %33, align 1
  %35 = sext i8 %34 to i32
  %36 = icmp sgt i32 %35, 96
  br i1 %36, label %37, label %42

37:                                               ; preds = %32
  %38 = load i8*, i8** %5, align 8
  %39 = load i8, i8* %38, align 1
  %40 = sext i8 %39 to i32
  %41 = icmp slt i32 %40, 123
  br i1 %41, label %47, label %42

42:                                               ; preds = %37, %32
  %43 = load i8*, i8** %5, align 8
  %44 = load i8, i8* %43, align 1
  %45 = sext i8 %44 to i32
  %46 = icmp eq i32 %45, 95
  br i1 %46, label %47, label %50

47:                                               ; preds = %42, %37, %27
  %48 = load i32, i32* %4, align 4
  %49 = add nsw i32 %48, 0
  store i32 %49, i32* %4, align 4
  br label %53

50:                                               ; preds = %42
  %51 = load i32, i32* %4, align 4
  %52 = add nsw i32 %51, 1
  store i32 %52, i32* %4, align 4
  br label %53

53:                                               ; preds = %50, %47
  %54 = load i8*, i8** %5, align 8
  %55 = getelementptr inbounds i8, i8* %54, i32 1
  store i8* %55, i8** %5, align 8
  br label %56

56:                                               ; preds = %103, %53
  %57 = load i8*, i8** %5, align 8
  %58 = load i8, i8* %57, align 1
  %59 = sext i8 %58 to i32
  %60 = icmp ne i32 %59, 0
  br i1 %60, label %61, label %106

61:                                               ; preds = %56
  %62 = load i8*, i8** %5, align 8
  %63 = load i8, i8* %62, align 1
  %64 = sext i8 %63 to i32
  %65 = icmp sgt i32 %64, 64
  br i1 %65, label %66, label %71

66:                                               ; preds = %61
  %67 = load i8*, i8** %5, align 8
  %68 = load i8, i8* %67, align 1
  %69 = sext i8 %68 to i32
  %70 = icmp slt i32 %69, 91
  br i1 %70, label %96, label %71

71:                                               ; preds = %66, %61
  %72 = load i8*, i8** %5, align 8
  %73 = load i8, i8* %72, align 1
  %74 = sext i8 %73 to i32
  %75 = icmp sgt i32 %74, 96
  br i1 %75, label %76, label %81

76:                                               ; preds = %71
  %77 = load i8*, i8** %5, align 8
  %78 = load i8, i8* %77, align 1
  %79 = sext i8 %78 to i32
  %80 = icmp slt i32 %79, 123
  br i1 %80, label %96, label %81

81:                                               ; preds = %76, %71
  %82 = load i8*, i8** %5, align 8
  %83 = load i8, i8* %82, align 1
  %84 = sext i8 %83 to i32
  %85 = icmp eq i32 %84, 95
  br i1 %85, label %96, label %86

86:                                               ; preds = %81
  %87 = load i8*, i8** %5, align 8
  %88 = load i8, i8* %87, align 1
  %89 = sext i8 %88 to i32
  %90 = icmp sgt i32 %89, 47
  br i1 %90, label %91, label %99

91:                                               ; preds = %86
  %92 = load i8*, i8** %5, align 8
  %93 = load i8, i8* %92, align 1
  %94 = sext i8 %93 to i32
  %95 = icmp slt i32 %94, 58
  br i1 %95, label %96, label %99

96:                                               ; preds = %91, %81, %76, %66
  %97 = load i32, i32* %4, align 4
  %98 = add nsw i32 %97, 0
  store i32 %98, i32* %4, align 4
  br label %102

99:                                               ; preds = %91, %86
  %100 = load i32, i32* %4, align 4
  %101 = add nsw i32 %100, 1
  store i32 %101, i32* %4, align 4
  br label %102

102:                                              ; preds = %99, %96
  br label %103

103:                                              ; preds = %102
  %104 = load i8*, i8** %5, align 8
  %105 = getelementptr inbounds i8, i8* %104, i32 1
  store i8* %105, i8** %5, align 8
  br label %56

106:                                              ; preds = %56
  %107 = load i32, i32* %4, align 4
  %108 = icmp eq i32 %107, 0
  br i1 %108, label %109, label %111

109:                                              ; preds = %106
  %110 = call i32 (i8*, ...) @printf(i8* getelementptr inbounds ([3 x i8], [3 x i8]* @.str.1, i64 0, i64 0))
  br label %117

111:                                              ; preds = %106
  %112 = load i32, i32* %4, align 4
  %113 = icmp sgt i32 %112, 0
  br i1 %113, label %114, label %116

114:                                              ; preds = %111
  %115 = call i32 (i8*, ...) @printf(i8* getelementptr inbounds ([3 x i8], [3 x i8]* @.str.2, i64 0, i64 0))
  br label %116

116:                                              ; preds = %114, %111
  br label %117

117:                                              ; preds = %116, %109
  %118 = load i8*, i8** %5, align 8
  %119 = load i8, i8* %118, align 1
  %120 = sext i8 %119 to i64
  %121 = inttoptr i64 %120 to i8*
  call void @free(i8* %121) #3
  br label %122

122:                                              ; preds = %117
  %123 = load i32, i32* %2, align 4
  %124 = add nsw i32 %123, 1
  store i32 %124, i32* %2, align 4
  br label %9

125:                                              ; preds = %9
  ret void
}

declare dso_local i32 @__isoc99_scanf(i8*, ...) #1

declare dso_local i32 @getchar() #1

declare dso_local i32 @gets(...) #1

declare dso_local i32 @printf(i8*, ...) #1

; Function Attrs: nounwind
declare dso_local void @free(i8*) #2


!llvm.module.flags = !{!0}
!llvm.ident = !{!1}

!0 = !{i32 1, !"wchar_size", i32 4}
!1 = !{!"clang version 10.0.0-4ubuntu1 "}
